target datalayout = "e-m:e-p270:32:32-p271:32:32-p272:64:64-i64:64-i128:128-f80:128-n8:16:32:64-S128"
target triple = "x86_64-pc-linux-gnu"

%class.Klass = type <{ %class.Metadata, i32, i32, i32, i32, ptr, ptr, ptr, [8 x ptr], %class.OopHandle, ptr, ptr, ptr, ptr, ptr, i32, %class.AccessFlags, i64, i64, i8, i8, i16, i16, [2 x i8], i32, [4 x i8] }>
%class.Metadata = type { ptr }
%class.OopHandle = type { ptr }
%class.AccessFlags = type { i32 }
%class.CDSHeapVerifier = type { %class.KlassClosure, i32, i32, %class.ResourceHashtable, %class.GrowableArray }
%class.KlassClosure = type { ptr }
%class.ResourceHashtable = type { %class.ResourceHashtableBase.base, [4 x i8] }
%class.ResourceHashtableBase.base = type <{ %class.FixedResourceHashtableStorage, i32 }>
%class.FixedResourceHashtableStorage = type { [15889 x ptr] }
%class.GrowableArray = type { %class.GrowableArrayWithAllocator, %class.GrowableArrayMetadata }
%class.GrowableArrayWithAllocator = type { %class.GrowableArrayView }
%class.GrowableArrayView = type { %class.GrowableArrayBase, ptr }
%class.GrowableArrayBase = type { i32, i32 }
%class.GrowableArrayMetadata = type { i64 }
%"class.CDSHeapVerifier::CheckStaticFields" = type { %class.FieldClosure, ptr, ptr, ptr }
%class.FieldClosure = type { ptr }
%class.Symbol = type { i32, i16, [2 x i8] }

@_ZTVN15CDSHeapVerifier17CheckStaticFieldsE = linkonce_odr hidden unnamed_addr constant { [3 x ptr] } { [3 x ptr] [ptr null, ptr null, ptr @_ZN15CDSHeapVerifier17CheckStaticFields8do_fieldEP15fieldDescriptor] }, comdat, align 8
@_ZTV12FieldClosure = linkonce_odr hidden unnamed_addr constant { [3 x ptr] } { [3 x ptr] [ptr null, ptr null, ptr @__cxa_pure_virtual] }, comdat, align 8

; Function Attrs: mustprogress nounwind uwtable
define linkonce_odr hidden noundef ptr @_ZNK6Symbol4baseEv(ptr noundef nonnull align 4 dereferenceable(8) %0) #1 comdat align 2 {
  %2 = alloca ptr, align 8
  store ptr %0, ptr %2, align 8
  %3 = load ptr, ptr %2, align 8
  %4 = getelementptr inbounds %class.Symbol, ptr %3, i32 0, i32 2
  %5 = getelementptr inbounds [2 x i8], ptr %4, i64 0, i64 0
  ret ptr %5
}

; Function Attrs: mustprogress nounwind uwtable
define linkonce_odr hidden noundef i32 @_ZNK6Symbol6lengthEv(ptr noundef nonnull align 4 dereferenceable(8) %0) #1 comdat align 2 {
  %2 = alloca ptr, align 8
  store ptr %0, ptr %2, align 8
  %3 = load ptr, ptr %2, align 8
  %4 = getelementptr inbounds %class.Symbol, ptr %3, i32 0, i32 1
  %5 = load i16, ptr %4, align 4
  %6 = zext i16 %5 to i32
  ret i32 %6
}

; Function Attrs: mustprogress nounwind uwtable
define linkonce_odr hidden noundef zeroext i1 @_ZNK6Symbol16contains_utf8_atEiPKci(ptr noundef nonnull align 4 dereferenceable(8) %0, i32 noundef %1, ptr noundef %2, i32 noundef %3) #1 comdat align 2 {
  %5 = alloca i1, align 1
  %6 = alloca ptr, align 8
  %7 = alloca i32, align 4
  %8 = alloca ptr, align 8
  %9 = alloca i32, align 4
  store ptr %0, ptr %6, align 8
  store i32 %1, ptr %7, align 4
  store ptr %2, ptr %8, align 8
  store i32 %3, ptr %9, align 4
  %10 = load ptr, ptr %6, align 8
  %11 = load i32, ptr %7, align 4
  %12 = icmp slt i32 %11, 0
  br i1 %12, label %13, label %14

13:                                               ; preds = %4
  store i1 false, ptr %5, align 1
  br label %31

14:                                               ; preds = %4
  %15 = load i32, ptr %7, align 4
  %16 = load i32, ptr %9, align 4
  %17 = add nsw i32 %15, %16
  %18 = call noundef i32 @_ZNK6Symbol11utf8_lengthEv(ptr noundef nonnull align 4 dereferenceable(8) %10)
  %19 = icmp sgt i32 %17, %18
  br i1 %19, label %20, label %21

20:                                               ; preds = %14
  store i1 false, ptr %5, align 1
  br label %31

21:                                               ; preds = %14
  %22 = call noundef ptr @_ZNK6Symbol4baseEv(ptr noundef nonnull align 4 dereferenceable(8) %10)
  %23 = load i32, ptr %7, align 4
  %24 = sext i32 %23 to i64
  %25 = getelementptr inbounds i8, ptr %22, i64 %24
  %26 = load ptr, ptr %8, align 8
  %27 = load i32, ptr %9, align 4
  %28 = sext i32 %27 to i64
  %29 = call i32 @memcmp(ptr noundef %25, ptr noundef %26, i64 noundef %28) #12
  %30 = icmp eq i32 %29, 0
  store i1 %30, ptr %5, align 1
  br label %31

31:                                               ; preds = %21, %20, %13
  %32 = load i1, ptr %5, align 1
  ret i1 %32
}

; Function Attrs: mustprogress nounwind uwtable
define linkonce_odr hidden noundef i32 @_ZNK6Symbol11utf8_lengthEv(ptr noundef nonnull align 4 dereferenceable(8) %0) #1 comdat align 2 {
  %2 = alloca ptr, align 8
  store ptr %0, ptr %2, align 8
  %3 = load ptr, ptr %2, align 8
  %4 = call noundef i32 @_ZNK6Symbol6lengthEv(ptr noundef nonnull align 4 dereferenceable(8) %3)
  ret i32 %4
}

; Function Attrs: mustprogress nounwind uwtable
define linkonce_odr hidden noundef zeroext i1 @_ZNK6Symbol6equalsEPKci(ptr noundef nonnull align 4 dereferenceable(8) %0, ptr noundef %1, i32 noundef %2) #1 comdat align 2 {
  %4 = alloca i1, align 1
  %5 = alloca ptr, align 8
  %6 = alloca ptr, align 8
  %7 = alloca i32, align 4
  %8 = alloca i32, align 4
  store ptr %0, ptr %5, align 8
  store ptr %1, ptr %6, align 8
  store i32 %2, ptr %7, align 4
  %9 = load ptr, ptr %5, align 8
  %10 = call noundef i32 @_ZNK6Symbol11utf8_lengthEv(ptr noundef nonnull align 4 dereferenceable(8) %9)
  store i32 %10, ptr %8, align 4
  %11 = load i32, ptr %8, align 4
  %12 = load i32, ptr %7, align 4
  %13 = icmp ne i32 %11, %12
  br i1 %13, label %14, label %15

14:                                               ; preds = %3
  store i1 false, ptr %4, align 1
  br label %19

15:                                               ; preds = %3
  %16 = load ptr, ptr %6, align 8
  %17 = load i32, ptr %7, align 4
  %18 = call noundef zeroext i1 @_ZNK6Symbol16contains_utf8_atEiPKci(ptr noundef nonnull align 4 dereferenceable(8) %9, i32 noundef 0, ptr noundef %16, i32 noundef %17)
  store i1 %18, ptr %4, align 1
  br label %19

19:                                               ; preds = %15, %14
  %20 = load i1, ptr %4, align 1
  ret i1 %20
}

; Function Attrs: mustprogress nounwind uwtable
define linkonce_odr hidden noundef zeroext i1 @_ZNK6Symbol6equalsEPKc(ptr noundef nonnull align 4 dereferenceable(8) %0, ptr noundef %1) #1 comdat align 2 {
  %3 = alloca ptr, align 8
  %4 = alloca ptr, align 8
  store ptr %0, ptr %3, align 8
  store ptr %1, ptr %4, align 8
  %5 = load ptr, ptr %3, align 8
  %6 = load ptr, ptr %4, align 8
  %7 = load ptr, ptr %4, align 8
  %8 = call i64 @strlen(ptr noundef %7) #12
  %9 = trunc i64 %8 to i32
  %10 = call noundef zeroext i1 @_ZNK6Symbol6equalsEPKci(ptr noundef nonnull align 4 dereferenceable(8) %5, ptr noundef %6, i32 noundef %9)
  ret i1 %10
}

; Function Attrs: mustprogress nounwind uwtable
define linkonce_odr hidden noundef ptr @_ZNK5Klass4nameEv(ptr noundef nonnull align 8 dereferenceable(196) %0) #1 comdat align 2 {
  %2 = alloca ptr, align 8
  store ptr %0, ptr %2, align 8
  %3 = load ptr, ptr %2, align 8
  %4 = getelementptr inbounds %class.Klass, ptr %3, i32 0, i32 5
  %5 = load ptr, ptr %4, align 8
  ret ptr %5
}

; Function Attrs: mustprogress nounwind uwtable
define linkonce_odr hidden noundef nonnull align 8 dereferenceable(8) ptr @_ZN17GrowableArrayViewIPPKcE2atEi(ptr noundef nonnull align 8 dereferenceable(16) %0, i32 noundef %1) #1 comdat align 2 {
  %3 = alloca ptr, align 8
  %4 = alloca i32, align 4
  store ptr %0, ptr %3, align 8
  store i32 %1, ptr %4, align 4
  %5 = load ptr, ptr %3, align 8
  %6 = getelementptr inbounds %class.GrowableArrayView, ptr %5, i32 0, i32 1
  %7 = load ptr, ptr %6, align 8
  %8 = load i32, ptr %4, align 4
  %9 = sext i32 %8 to i64
  %10 = getelementptr inbounds ptr, ptr %7, i64 %9
  ret ptr %10
}

; Function Attrs: mustprogress nounwind uwtable
define linkonce_odr hidden noundef i32 @_ZNK17GrowableArrayBase6lengthEv(ptr noundef nonnull align 4 dereferenceable(8) %0) #1 comdat align 2 {
  %2 = alloca ptr, align 8
  store ptr %0, ptr %2, align 8
  %3 = load ptr, ptr %2, align 8
  %4 = getelementptr inbounds %class.GrowableArrayBase, ptr %3, i32 0, i32 0
  %5 = load i32, ptr %4, align 4
  ret i32 %5
}

; Function Attrs: mustprogress nounwind uwtable
define linkonce_odr hidden noundef ptr @_ZN15CDSHeapVerifier14find_exclusionEP13InstanceKlass(ptr noundef nonnull align 8 dereferenceable(127160) %0, ptr noundef %1) #1 comdat align 2 {
  %3 = alloca ptr, align 8
  %4 = alloca ptr, align 8
  %5 = alloca ptr, align 8
  %6 = alloca i32, align 4
  %7 = alloca ptr, align 8
  store ptr %0, ptr %4, align 8
  store ptr %1, ptr %5, align 8
  %8 = load ptr, ptr %4, align 8
  store i32 0, ptr %6, align 4
  br label %9

9:                                                ; preds = %29, %2
  %10 = load i32, ptr %6, align 4
  %11 = getelementptr inbounds %class.CDSHeapVerifier, ptr %8, i32 0, i32 4
  %12 = call noundef i32 @_ZNK17GrowableArrayBase6lengthEv(ptr noundef nonnull align 4 dereferenceable(8) %11)
  %13 = icmp slt i32 %10, %12
  br i1 %13, label %14, label %32

14:                                               ; preds = %9
  %15 = getelementptr inbounds %class.CDSHeapVerifier, ptr %8, i32 0, i32 4
  %16 = load i32, ptr %6, align 4
  %17 = call noundef nonnull align 8 dereferenceable(8) ptr @_ZN17GrowableArrayViewIPPKcE2atEi(ptr noundef nonnull align 8 dereferenceable(16) %15, i32 noundef %16)
  %18 = load ptr, ptr %17, align 8
  store ptr %18, ptr %7, align 8
  %19 = load ptr, ptr %5, align 8
  %20 = call noundef ptr @_ZNK5Klass4nameEv(ptr noundef nonnull align 8 dereferenceable(196) %19)
  %21 = load ptr, ptr %7, align 8
  %22 = getelementptr inbounds ptr, ptr %21, i64 0
  %23 = load ptr, ptr %22, align 8
  %24 = call noundef zeroext i1 @_ZNK6Symbol6equalsEPKc(ptr noundef nonnull align 4 dereferenceable(8) %20, ptr noundef %23)
  br i1 %24, label %25, label %28

25:                                               ; preds = %14
  %26 = load ptr, ptr %7, align 8
  %27 = getelementptr inbounds ptr, ptr %26, i64 1
  store ptr %27, ptr %3, align 8
  br label %33

28:                                               ; preds = %14
  br label %29

29:                                               ; preds = %28
  %30 = load i32, ptr %6, align 4
  %31 = add nsw i32 %30, 1
  store i32 %31, ptr %6, align 4
  br label %9, !llvm.loop !13

32:                                               ; preds = %9
  store ptr null, ptr %3, align 8
  br label %33

33:                                               ; preds = %32, %25
  %34 = load ptr, ptr %3, align 8
  ret ptr %34
}

; Function Attrs: mustprogress nounwind uwtable
define linkonce_odr hidden void @_ZN12FieldClosureC2Ev(ptr noundef nonnull align 8 dereferenceable(8) %0) unnamed_addr #1 comdat align 2 {
  %2 = alloca ptr, align 8
  store ptr %0, ptr %2, align 8
  %3 = load ptr, ptr %2, align 8
  store ptr getelementptr inbounds inrange(-16, 8) ({ [3 x ptr] }, ptr @_ZTV12FieldClosure, i32 0, i32 0, i32 2), ptr %3, align 8
  ret void
}

; Function Attrs: mustprogress nounwind uwtable
define linkonce_odr hidden noundef ptr @_ZN13InstanceKlass4castEPK5Klass(ptr noundef %0) #1 comdat align 2 {
  %2 = alloca ptr, align 8
  store ptr %0, ptr %2, align 8
  %3 = load ptr, ptr %2, align 8
  ret ptr %3
}

; Function Attrs: mustprogress nounwind uwtable
define linkonce_odr hidden void @_ZN15CDSHeapVerifier17CheckStaticFieldsC2EPS_P13InstanceKlass(ptr noundef nonnull align 8 dereferenceable(32) %0, ptr noundef %1, ptr noundef %2) unnamed_addr #1 comdat align 2 {
  %4 = alloca ptr, align 8
  %5 = alloca ptr, align 8
  %6 = alloca ptr, align 8
  store ptr %0, ptr %4, align 8
  store ptr %1, ptr %5, align 8
  store ptr %2, ptr %6, align 8
  %7 = load ptr, ptr %4, align 8
  call void @_ZN12FieldClosureC2Ev(ptr noundef nonnull align 8 dereferenceable(8) %7) #11
  store ptr getelementptr inbounds inrange(-16, 8) ({ [3 x ptr] }, ptr @_ZTVN15CDSHeapVerifier17CheckStaticFieldsE, i32 0, i32 0, i32 2), ptr %7, align 8
  %8 = getelementptr inbounds %"class.CDSHeapVerifier::CheckStaticFields", ptr %7, i32 0, i32 1
  %9 = load ptr, ptr %5, align 8
  store ptr %9, ptr %8, align 8
  %10 = getelementptr inbounds %"class.CDSHeapVerifier::CheckStaticFields", ptr %7, i32 0, i32 2
  %11 = load ptr, ptr %6, align 8
  store ptr %11, ptr %10, align 8
  %12 = getelementptr inbounds %"class.CDSHeapVerifier::CheckStaticFields", ptr %7, i32 0, i32 1
  %13 = load ptr, ptr %12, align 8
  %14 = getelementptr inbounds %"class.CDSHeapVerifier::CheckStaticFields", ptr %7, i32 0, i32 2
  %15 = load ptr, ptr %14, align 8
  %16 = call noundef ptr @_ZN15CDSHeapVerifier14find_exclusionEP13InstanceKlass(ptr noundef nonnull align 8 dereferenceable(127160) %13, ptr noundef %15)
  %17 = getelementptr inbounds %"class.CDSHeapVerifier::CheckStaticFields", ptr %7, i32 0, i32 3
  store ptr %16, ptr %17, align 8
  ret void
}

; Function Attrs: mustprogress nounwind uwtable
define linkonce_odr hidden noundef ptr @_ZN13InstanceKlass4castEP5Klass(ptr noundef %0) #1 comdat align 2 {
  %2 = alloca ptr, align 8
  store ptr %0, ptr %2, align 8
  %3 = load ptr, ptr %2, align 8
  %4 = call noundef ptr @_ZN13InstanceKlass4castEPK5Klass(ptr noundef %3)
  ret ptr %4
}

; Function Attrs: mustprogress nounwind uwtable
define linkonce_odr hidden noundef zeroext i1 @_ZNK5Klass17is_instance_klassEv(ptr noundef nonnull align 8 dereferenceable(196) %0) #1 comdat align 2 {
  %2 = alloca ptr, align 8
  store ptr %0, ptr %2, align 8
  %3 = load ptr, ptr %2, align 8
  %4 = getelementptr inbounds %class.Klass, ptr %3, i32 0, i32 2
  %5 = load i32, ptr %4, align 4
  %6 = icmp sle i32 %5, 4
  ret i1 %6
}

; Function Attrs: mustprogress nounwind uwtable
define hidden void @_ZN15CDSHeapVerifier8do_klassEP5Klass(ptr noundef nonnull align 8 dereferenceable(127160) %0, ptr noundef %1) unnamed_addr #1 align 2 {
  %3 = alloca ptr, align 8
  %4 = alloca ptr, align 8
  %5 = alloca ptr, align 8
  %6 = alloca %"class.CDSHeapVerifier::CheckStaticFields", align 8
  store ptr %0, ptr %3, align 8
  store ptr %1, ptr %4, align 8
  %7 = load ptr, ptr %3, align 8
  %8 = load ptr, ptr %4, align 8
  %9 = call noundef zeroext i1 @_ZNK5Klass17is_instance_klassEv(ptr noundef nonnull align 8 dereferenceable(196) %8)
  br i1 %9, label %10, label %19

10:                                               ; preds = %2
  %11 = load ptr, ptr %4, align 8
  %12 = call noundef ptr @_ZN13InstanceKlass4castEP5Klass(ptr noundef %11)
  store ptr %12, ptr %5, align 8
  %13 = load ptr, ptr %5, align 8
  %14 = call noundef zeroext i1 @_ZN10HeapShared22is_subgraph_root_classEP13InstanceKlass(ptr noundef %13)
  br i1 %14, label %15, label %16

15:                                               ; preds = %10
  br label %19

16:                                               ; preds = %10
  %17 = load ptr, ptr %5, align 8
  call void @_ZN15CDSHeapVerifier17CheckStaticFieldsC2EPS_P13InstanceKlass(ptr noundef nonnull align 8 dereferenceable(32) %6, ptr noundef %7, ptr noundef %17)
  %18 = load ptr, ptr %5, align 8
  call void @_ZN13InstanceKlass22do_local_static_fieldsEP12FieldClosure(ptr noundef nonnull align 8 dereferenceable(464) %18, ptr noundef %6)
  br label %19

19:                                               ; preds = %16, %15, %2
  ret void
}