; Function Attrs: mustprogress nounwind uwtable
define hidden void @_ZN15CDSHeapVerifier8do_klassEP5Klass(ptr noundef nonnull align 8 dereferenceable(127160) %0, ptr noundef %1) unnamed_addr #0 align 2 {
  %3 = alloca %"class.CDSHeapVerifier::CheckStaticFields", align 8
  %4 = getelementptr inbounds i8, ptr %1, i64 12
  %5 = load i32, ptr %4, align 4
  %6 = icmp slt i32 %5, 5
  br i1 %6, label %7, label %34

7:                                                ; preds = %2
  %8 = tail call noundef zeroext i1 @_ZN10HeapShared22is_subgraph_root_classEP13InstanceKlass(ptr noundef nonnull %1) #12
  br i1 %8, label %34, label %9

9:                                                ; preds = %7
  store ptr getelementptr inbounds inrange(-16, 8) (i8, ptr @_ZTVN15CDSHeapVerifier17CheckStaticFieldsE, i64 16), ptr %3, align 8
  %10 = getelementptr inbounds i8, ptr %3, i64 8
  store ptr %0, ptr %10, align 8
  %11 = getelementptr inbounds i8, ptr %3, i64 16
  store ptr %1, ptr %11, align 8
  %12 = getelementptr inbounds i8, ptr %0, i64 127136
  %13 = load i32, ptr %12, align 8
  %14 = icmp sgt i32 %13, 0
  br i1 %14, label %.lr.ph.i.i, label %_ZN15CDSHeapVerifier17CheckStaticFieldsC2EPS_P13InstanceKlass.exit

.lr.ph.i.i:                                       ; preds = %9
  %15 = getelementptr inbounds i8, ptr %0, i64 127144
  %16 = load ptr, ptr %15, align 8
  %17 = getelementptr inbounds i8, ptr %1, i64 24
  %18 = load ptr, ptr %17, align 8
  %19 = getelementptr inbounds i8, ptr %18, i64 4
  %20 = load i16, ptr %19, align 4
  %21 = zext i16 %20 to i32
  %22 = getelementptr inbounds i8, ptr %18, i64 6
  %wide.trip.count.i.i = zext nneg i32 %13 to i64
  br label %23

23:                                               ; preds = %_ZNK6Symbol6equalsEPKc.exit.thread.i.i, %.lr.ph.i.i
  %indvars.iv.i.i = phi i64 [ 0, %.lr.ph.i.i ], [ %indvars.iv.next.i.i, %_ZNK6Symbol6equalsEPKc.exit.thread.i.i ]
  %24 = getelementptr inbounds ptr, ptr %16, i64 %indvars.iv.i.i
  %25 = load ptr, ptr %24, align 8
  %26 = load ptr, ptr %25, align 8
  %27 = tail call i64 @strlen(ptr noundef nonnull dereferenceable(1) %26) #13
  %28 = trunc i64 %27 to i32
  %.not.i.i.i.i = icmp eq i32 %21, %28
  br i1 %.not.i.i.i.i, label %_ZNK6Symbol6equalsEPKc.exit.i.i, label %_ZNK6Symbol6equalsEPKc.exit.thread.i.i

_ZNK6Symbol6equalsEPKc.exit.i.i:                  ; preds = %23
  %29 = and i64 %27, 4294967295
  %bcmp.i.i.i.i.i = tail call i32 @bcmp(ptr nonnull %22, ptr %26, i64 %29)
  %30 = icmp eq i32 %bcmp.i.i.i.i.i, 0
  br i1 %30, label %31, label %_ZNK6Symbol6equalsEPKc.exit.thread.i.i

31:                                               ; preds = %_ZNK6Symbol6equalsEPKc.exit.i.i
  %32 = getelementptr inbounds i8, ptr %25, i64 8
  br label %_ZN15CDSHeapVerifier17CheckStaticFieldsC2EPS_P13InstanceKlass.exit

_ZNK6Symbol6equalsEPKc.exit.thread.i.i:           ; preds = %_ZNK6Symbol6equalsEPKc.exit.i.i, %23
  %indvars.iv.next.i.i = add nuw nsw i64 %indvars.iv.i.i, 1
  %exitcond.not.i.i = icmp eq i64 %indvars.iv.next.i.i, %wide.trip.count.i.i
  br i1 %exitcond.not.i.i, label %_ZN15CDSHeapVerifier17CheckStaticFieldsC2EPS_P13InstanceKlass.exit, label %23, !llvm.loop !9

_ZN15CDSHeapVerifier17CheckStaticFieldsC2EPS_P13InstanceKlass.exit: ; preds = %_ZNK6Symbol6equalsEPKc.exit.thread.i.i, %9, %31
  %.0.i.i = phi ptr [ %32, %31 ], [ null, %9 ], [ null, %_ZNK6Symbol6equalsEPKc.exit.thread.i.i ]
  %33 = getelementptr inbounds i8, ptr %3, i64 24
  store ptr %.0.i.i, ptr %33, align 8
  call void @_ZN13InstanceKlass22do_local_static_fieldsEP12FieldClosure(ptr noundef nonnull align 8 dereferenceable(464) %1, ptr noundef nonnull %3) #12
  br label %34

34:                                               ; preds = %7, %_ZN15CDSHeapVerifier17CheckStaticFieldsC2EPS_P13InstanceKlass.exit, %2
  ret void
}